; ModuleID = 'source-C-CXX/54/1408.cpp'
source_filename = "source-C-CXX/54/1408.cpp"
target datalayout = "e-m:e-p270:32:32-p271:32:32-p272:64:64-i64:64-f80:128-n8:16:32:64-S128"
target triple = "x86_64-pc-linux-gnu"

%"class.std::ios_base::Init" = type { i8 }
%"class.std::basic_istream" = type { i32 (...)**, i64, %"class.std::basic_ios" }
%"class.std::basic_ios" = type { %"class.std::ios_base", %"class.std::basic_ostream"*, i8, i8, %"class.std::basic_streambuf"*, %"class.std::ctype"*, %"class.std::num_put"*, %"class.std::num_get"* }
%"class.std::ios_base" = type { i32 (...)**, i64, i64, i32, i32, i32, %"struct.std::ios_base::_Callback_list"*, %"struct.std::ios_base::_Words", [8 x %"struct.std::ios_base::_Words"], i32, %"struct.std::ios_base::_Words"*, %"class.std::locale" }
%"struct.std::ios_base::_Callback_list" = type { %"struct.std::ios_base::_Callback_list"*, void (i32, %"class.std::ios_base"*, i32)*, i32, i32 }
%"struct.std::ios_base::_Words" = type { i8*, i64 }
%"class.std::locale" = type { %"class.std::locale::_Impl"* }
%"class.std::locale::_Impl" = type { i32, %"class.std::locale::facet"**, i64, %"class.std::locale::facet"**, i8** }
%"class.std::locale::facet" = type <{ i32 (...)**, i32, [4 x i8] }>
%"class.std::basic_ostream" = type { i32 (...)**, %"class.std::basic_ios" }
%"class.std::basic_streambuf" = type { i32 (...)**, i8*, i8*, i8*, i8*, i8*, i8*, %"class.std::locale" }
%"class.std::ctype" = type <{ %"class.std::locale::facet.base", [4 x i8], %struct.__locale_struct*, i8, [7 x i8], i32*, i32*, i16*, i8, [256 x i8], [256 x i8], i8, [6 x i8] }>
%"class.std::locale::facet.base" = type <{ i32 (...)**, i32 }>
%struct.__locale_struct = type { [13 x %struct.__locale_data*], i16*, i32*, i32*, [13 x i8*] }
%struct.__locale_data = type opaque
%"class.std::num_put" = type { %"class.std::locale::facet.base", [4 x i8] }
%"class.std::num_get" = type { %"class.std::locale::facet.base", [4 x i8] }

@_ZStL8__ioinit = internal global %"class.std::ios_base::Init" zeroinitializer, align 1
@__dso_handle = external hidden global i8
@_ZSt3cin = external global %"class.std::basic_istream", align 8
@_ZSt4cout = external global %"class.std::basic_ostream", align 8
@__const._Z8functioni.a = private unnamed_addr constant [37 x i8] c"0123456789ABCDEFGHIJKLMNOPQRSTUVWXYZ\00", align 16
@llvm.global_ctors = appending global [1 x { i32, void ()*, i8* }] [{ i32, void ()*, i8* } { i32 65535, void ()* @_GLOBAL__sub_I_1408.cpp, i8* null }]

declare void @_ZNSt8ios_base4InitC1Ev(%"class.std::ios_base::Init"* nonnull align 1 dereferenceable(1)) unnamed_addr #0

; Function Attrs: nounwind
declare void @_ZNSt8ios_base4InitD1Ev(%"class.std::ios_base::Init"* nonnull align 1 dereferenceable(1)) unnamed_addr #1

; Function Attrs: nofree nounwind
declare i32 @__cxa_atexit(void (i8*)*, i8*, i8*) local_unnamed_addr #2

; Function Attrs: mustprogress norecurse sspstrong uwtable
define dso_local i32 @main() local_unnamed_addr #3 {
  %1 = alloca i8, align 1
  %2 = alloca i32, align 4
  %3 = alloca i32, align 4
  %4 = alloca [100000 x i8], align 16
  %5 = alloca [100000 x i8], align 16
  %6 = bitcast i32* %2 to i8*
  call void @llvm.lifetime.start.p0i8(i64 4, i8* nonnull %6) #7
  %7 = bitcast i32* %3 to i8*
  call void @llvm.lifetime.start.p0i8(i64 4, i8* nonnull %7) #7
  %8 = getelementptr inbounds [100000 x i8], [100000 x i8]* %4, i64 0, i64 0
  call void @llvm.lifetime.start.p0i8(i64 100000, i8* nonnull %8) #7
  %9 = getelementptr inbounds [100000 x i8], [100000 x i8]* %5, i64 0, i64 0
  call void @llvm.lifetime.start.p0i8(i64 100000, i8* nonnull %9) #7
  %10 = call nonnull align 8 dereferenceable(16) %"class.std::basic_istream"* @_ZNSirsERi(%"class.std::basic_istream"* nonnull align 8 dereferenceable(16) @_ZSt3cin, i32* nonnull align 4 dereferenceable(4) %2)
  call void @_ZSt17__istream_extractRSiPcl(%"class.std::basic_istream"* nonnull align 8 dereferenceable(16) %10, i8* nonnull %8, i64 100000)
  %11 = call nonnull align 8 dereferenceable(16) %"class.std::basic_istream"* @_ZNSirsERi(%"class.std::basic_istream"* nonnull align 8 dereferenceable(16) %10, i32* nonnull align 4 dereferenceable(4) %3)
  %12 = load i8, i8* %8, align 16, !tbaa !5
  %13 = icmp eq i8 %12, 0
  br i1 %13, label %25, label %17

14:                                               ; preds = %17
  %15 = load i32, i32* %2, align 4
  %16 = zext i32 %20 to i64
  br label %36

17:                                               ; preds = %0, %17
  %18 = phi i64 [ %21, %17 ], [ 0, %0 ]
  %19 = phi i32 [ %20, %17 ], [ 0, %0 ]
  %20 = add nuw nsw i32 %19, 1
  %21 = add nuw nsw i64 %18, 1
  %22 = getelementptr inbounds [100000 x i8], [100000 x i8]* %4, i64 0, i64 %21
  %23 = load i8, i8* %22, align 1, !tbaa !5
  %24 = icmp eq i8 %23, 0
  br i1 %24, label %14, label %17, !llvm.loop !8

25:                                               ; preds = %36, %0
  %26 = phi i32 [ 0, %0 ], [ %60, %36 ]
  %27 = load i32, i32* %3, align 4, !tbaa !10
  %28 = srem i32 %26, %27
  %29 = sdiv i32 %26, %27
  %30 = sext i32 %28 to i64
  %31 = getelementptr inbounds [37 x i8], [37 x i8]* @__const._Z8functioni.a, i64 0, i64 %30
  %32 = load i8, i8* %31, align 1, !tbaa !5
  store i8 %32, i8* %9, align 16, !tbaa !5
  %33 = icmp eq i32 %29, 0
  br i1 %33, label %34, label %65

34:                                               ; preds = %63, %25
  %35 = phi i64 [ 0, %25 ], [ %64, %63 ]
  br label %78

36:                                               ; preds = %14, %36
  %37 = phi i64 [ %16, %14 ], [ %40, %36 ]
  %38 = phi i32 [ 1, %14 ], [ %61, %36 ]
  %39 = phi i32 [ 0, %14 ], [ %60, %36 ]
  %40 = add nsw i64 %37, -1
  %41 = getelementptr inbounds [100000 x i8], [100000 x i8]* %4, i64 0, i64 %40
  %42 = load i8, i8* %41, align 1, !tbaa !5
  %43 = icmp slt i8 %42, 58
  %44 = sext i8 %42 to i32
  %45 = add nsw i32 %44, -48
  %46 = mul nsw i32 %45, %38
  %47 = select i1 %43, i32 %46, i32 0
  %48 = add nsw i32 %47, %39
  %49 = add i8 %42, -58
  %50 = icmp ult i8 %49, 33
  %51 = add nsw i32 %44, -55
  %52 = mul nsw i32 %51, %38
  %53 = select i1 %50, i32 %52, i32 0
  %54 = add nsw i32 %48, %53
  %55 = add i8 %42, -91
  %56 = icmp ult i8 %55, 32
  %57 = add nsw i32 %44, -87
  %58 = mul nsw i32 %57, %38
  %59 = select i1 %56, i32 %58, i32 0
  %60 = add nsw i32 %54, %59
  %61 = mul nsw i32 %15, %38
  %62 = icmp sgt i64 %37, 1
  br i1 %62, label %36, label %25, !llvm.loop !12

63:                                               ; preds = %65
  %64 = zext i32 %69 to i64
  br label %34

65:                                               ; preds = %25, %65
  %66 = phi i64 [ %70, %65 ], [ 0, %25 ]
  %67 = phi i32 [ %72, %65 ], [ %29, %25 ]
  %68 = phi i32 [ %69, %65 ], [ 0, %25 ]
  %69 = add nuw nsw i32 %68, 1
  %70 = add nuw nsw i64 %66, 1
  %71 = srem i32 %67, %27
  %72 = sdiv i32 %67, %27
  %73 = sext i32 %71 to i64
  %74 = getelementptr inbounds [37 x i8], [37 x i8]* @__const._Z8functioni.a, i64 0, i64 %73
  %75 = load i8, i8* %74, align 1, !tbaa !5
  %76 = getelementptr inbounds [100000 x i8], [100000 x i8]* %5, i64 0, i64 %70
  store i8 %75, i8* %76, align 1, !tbaa !5
  %77 = icmp eq i32 %72, 0
  br i1 %77, label %63, label %65, !llvm.loop !13

78:                                               ; preds = %34, %78
  %79 = phi i64 [ %83, %78 ], [ %35, %34 ]
  %80 = getelementptr inbounds [100000 x i8], [100000 x i8]* %5, i64 0, i64 %79
  %81 = load i8, i8* %80, align 1, !tbaa !5
  call void @llvm.lifetime.start.p0i8(i64 1, i8* nonnull %1)
  store i8 %81, i8* %1, align 1, !tbaa !5
  %82 = call nonnull align 8 dereferenceable(8) %"class.std::basic_ostream"* @_ZSt16__ostream_insertIcSt11char_traitsIcEERSt13basic_ostreamIT_T0_ES6_PKS3_l(%"class.std::basic_ostream"* nonnull align 8 dereferenceable(8) @_ZSt4cout, i8* nonnull %1, i64 1)
  call void @llvm.lifetime.end.p0i8(i64 1, i8* nonnull %1)
  %83 = add nsw i64 %79, -1
  %84 = icmp sgt i64 %79, 0
  br i1 %84, label %78, label %85, !llvm.loop !14

85:                                               ; preds = %78
  call void @llvm.lifetime.end.p0i8(i64 100000, i8* nonnull %9) #7
  call void @llvm.lifetime.end.p0i8(i64 100000, i8* nonnull %8) #7
  call void @llvm.lifetime.end.p0i8(i64 4, i8* nonnull %7) #7
  call void @llvm.lifetime.end.p0i8(i64 4, i8* nonnull %6) #7
  ret i32 0
}

; Function Attrs: argmemonly mustprogress nofree nosync nounwind willreturn
declare void @llvm.lifetime.start.p0i8(i64 immarg, i8* nocapture) #4

declare nonnull align 8 dereferenceable(16) %"class.std::basic_istream"* @_ZNSirsERi(%"class.std::basic_istream"* nonnull align 8 dereferenceable(16), i32* nonnull align 4 dereferenceable(4)) local_unnamed_addr #0

; Function Attrs: mustprogress nofree norecurse nosync nounwind readnone sspstrong uwtable willreturn
define dso_local signext i8 @_Z8functioni(i32 %0) local_unnamed_addr #5 {
  %2 = sext i32 %0 to i64
  %3 = getelementptr inbounds [37 x i8], [37 x i8]* @__const._Z8functioni.a, i64 0, i64 %2
  %4 = load i8, i8* %3, align 1, !tbaa !5
  ret i8 %4
}

; Function Attrs: argmemonly mustprogress nofree nosync nounwind willreturn
declare void @llvm.lifetime.end.p0i8(i64 immarg, i8* nocapture) #4

declare void @_ZSt17__istream_extractRSiPcl(%"class.std::basic_istream"* nonnull align 8 dereferenceable(16), i8*, i64) local_unnamed_addr #0

declare nonnull align 8 dereferenceable(8) %"class.std::basic_ostream"* @_ZSt16__ostream_insertIcSt11char_traitsIcEERSt13basic_ostreamIT_T0_ES6_PKS3_l(%"class.std::basic_ostream"* nonnull align 8 dereferenceable(8), i8*, i64) local_unnamed_addr #0

; Function Attrs: sspstrong uwtable
define internal void @_GLOBAL__sub_I_1408.cpp() #6 section ".text.startup" {
  tail call void @_ZNSt8ios_base4InitC1Ev(%"class.std::ios_base::Init"* nonnull align 1 dereferenceable(1) @_ZStL8__ioinit)
  %1 = tail call i32 @__cxa_atexit(void (i8*)* bitcast (void (%"class.std::ios_base::Init"*)* @_ZNSt8ios_base4InitD1Ev to void (i8*)*), i8* getelementptr inbounds (%"class.std::ios_base::Init", %"class.std::ios_base::Init"* @_ZStL8__ioinit, i64 0, i32 0), i8* nonnull @__dso_handle) #7
  ret void
}


!llvm.module.flags = !{!0, !1, !2, !3}
!llvm.ident = !{!4}

!0 = !{i32 1, !"wchar_size", i32 4}
!1 = !{i32 7, !"PIC Level", i32 2}
!2 = !{i32 7, !"PIE Level", i32 2}
!3 = !{i32 7, !"uwtable", i32 1}
!4 = !{!"clang version 13.0.0"}
!5 = !{!6, !6, i64 0}
!6 = !{!"omnipotent char", !7, i64 0}
!7 = !{!"Simple C++ TBAA"}
!8 = distinct !{!8, !9}
!9 = !{!"llvm.loop.mustprogress"}
!10 = !{!11, !11, i64 0}
!11 = !{!"int", !6, i64 0}
!12 = distinct !{!12, !9}
!13 = distinct !{!13, !9}
!14 = distinct !{!14, !9}
